; Function Attrs: mustprogress nofree norecurse nosync nounwind willreturn memory(argmem: read) uwtable
define noundef zeroext i1 @_ZNK2cv10softdoublegeERKS0_(ptr nocapture noundef nonnull readonly align 8 dereferenceable(8) %0, ptr nocapture noundef nonnull readonly align 8 dereferenceable(8) %1) local_unnamed_addr #4 align 2 {
  %3 = load i64, ptr %1, align 8
  %4 = load i64, ptr %0, align 8
  %5 = and i64 %3, 9218868437227405312
  %6 = icmp ne i64 %5, 9218868437227405312
  %7 = and i64 %3, 4503599627370495
  %.not.i = icmp eq i64 %7, 0
  %or.cond.i = or i1 %6, %.not.i
  br i1 %or.cond.i, label %8, label %_ZN2cvL6f64_leENS_10softdoubleES0_.exit

8:                                                ; preds = %2
  %9 = and i64 %4, 9218868437227405312
  %10 = icmp ne i64 %9, 9218868437227405312
  %11 = and i64 %4, 4503599627370495
  %.not19.i = icmp eq i64 %11, 0
  %or.cond23.i = or i1 %10, %.not19.i
  br i1 %or.cond23.i, label %12, label %_ZN2cvL6f64_leENS_10softdoubleES0_.exit

12:                                               ; preds = %8
  %.not21.unshifted.i = xor i64 %4, %3
  %.not21.i = icmp sgt i64 %.not21.unshifted.i, -1
  br i1 %.not21.i, label %17, label %13

13:                                               ; preds = %12
  %14 = icmp slt i64 %3, 0
  br i1 %14, label %_ZN2cvL6f64_leENS_10softdoubleES0_.exit, label %15

15:                                               ; preds = %13
  %.masked.i = and i64 %4, 9223372036854775807
  %16 = or i64 %.masked.i, %3
  %.not22.i = icmp eq i64 %16, 0
  br label %_ZN2cvL6f64_leENS_10softdoubleES0_.exit

17:                                               ; preds = %12
  %18 = icmp eq i64 %3, %4
  br i1 %18, label %_ZN2cvL6f64_leENS_10softdoubleES0_.exit, label %19

19:                                               ; preds = %17
  %20 = icmp ult i64 %3, %4
  %21 = icmp slt i64 %3, 0
  %22 = xor i1 %21, %20
  br label %_ZN2cvL6f64_leENS_10softdoubleES0_.exit

_ZN2cvL6f64_leENS_10softdoubleES0_.exit:          ; preds = %2, %8, %13, %15, %17, %19
  %.0.i = phi i1 [ true, %13 ], [ %.not22.i, %15 ], [ true, %17 ], [ %22, %19 ], [ false, %8 ], [ false, %2 ]
  ret i1 %.0.i
}